target datalayout = "e-m:e-p270:32:32-p271:32:32-p272:64:64-i64:64-i128:128-f80:128-n8:16:32:64-S128"
target triple = "x86_64-pc-linux-gnu"

%"class.std::random_device" = type { %union.anon.19 }
%union.anon.19 = type { %"class.std::mersenne_twister_engine" }
%"class.std::mersenne_twister_engine" = type { [624 x i64], i64 }
%"class.std::uniform_real_distribution" = type { %"struct.std::uniform_real_distribution<>::param_type" }
%"struct.std::uniform_real_distribution<>::param_type" = type { double, double }
%"struct.std::__detail::_Adaptor" = type { ptr }

; Function Attrs: mustprogress nounwind uwtable
define linkonce_odr noundef nonnull align 8 dereferenceable(8) ptr @_ZSt3maxImERKT_S2_S2_(ptr noundef nonnull align 8 dereferenceable(8) %0, ptr noundef nonnull align 8 dereferenceable(8) %1) #4 comdat {
  %3 = alloca ptr, align 8
  %4 = alloca ptr, align 8
  %5 = alloca ptr, align 8
  store ptr %0, ptr %4, align 8
  store ptr %1, ptr %5, align 8
  %6 = load ptr, ptr %4, align 8
  %7 = load i64, ptr %6, align 8
  %8 = load ptr, ptr %5, align 8
  %9 = load i64, ptr %8, align 8
  %10 = icmp ult i64 %7, %9
  br i1 %10, label %11, label %13

11:                                               ; preds = %2
  %12 = load ptr, ptr %5, align 8
  store ptr %12, ptr %3, align 8
  br label %15

13:                                               ; preds = %2
  %14 = load ptr, ptr %4, align 8
  store ptr %14, ptr %3, align 8
  br label %15

15:                                               ; preds = %13, %11
  %16 = load ptr, ptr %3, align 8
  ret ptr %16
}

; Function Attrs: mustprogress nounwind uwtable
define linkonce_odr noundef x86_fp80 @_ZSt3loge(x86_fp80 noundef %0) #4 comdat {
  %2 = alloca x86_fp80, align 16
  store x86_fp80 %0, ptr %2, align 16
  %3 = load x86_fp80, ptr %2, align 16
  %4 = call x86_fp80 @logl(x86_fp80 noundef %3) #3
  ret x86_fp80 %4
}

; Function Attrs: mustprogress nounwind uwtable
define linkonce_odr noundef i64 @_ZNSt23mersenne_twister_engineImLm32ELm624ELm397ELm31ELm2567483615ELm11ELm4294967295ELm7ELm2636928640ELm15ELm4022730752ELm18ELm1812433253EE3minEv() #4 comdat align 2 {
  ret i64 0
}

; Function Attrs: mustprogress nounwind uwtable
define linkonce_odr noundef i64 @_ZNSt23mersenne_twister_engineImLm32ELm624ELm397ELm31ELm2567483615ELm11ELm4294967295ELm7ELm2636928640ELm15ELm4022730752ELm18ELm1812433253EE3maxEv() #4 comdat align 2 {
  ret i64 4294967295
}

; Function Attrs: mustprogress uwtable
define linkonce_odr noundef double @_ZSt18generate_canonicalIdLm53ESt23mersenne_twister_engineImLm32ELm624ELm397ELm31ELm2567483615ELm11ELm4294967295ELm7ELm2636928640ELm15ELm4022730752ELm18ELm1812433253EEET_RT1_(ptr noundef nonnull align 8 dereferenceable(5000) %0) #5 comdat {
  %2 = alloca ptr, align 8
  %3 = alloca i64, align 8
  %4 = alloca x86_fp80, align 16
  %5 = alloca i64, align 8
  %6 = alloca i64, align 8
  %7 = alloca i64, align 8
  %8 = alloca i64, align 8
  %9 = alloca double, align 8
  %10 = alloca double, align 8
  %11 = alloca double, align 8
  %12 = alloca i64, align 8
  store ptr %0, ptr %2, align 8
  store i64 53, ptr %3, align 8
  %13 = call noundef i64 @_ZNSt23mersenne_twister_engineImLm32ELm624ELm397ELm31ELm2567483615ELm11ELm4294967295ELm7ELm2636928640ELm15ELm4022730752ELm18ELm1812433253EE3maxEv()
  %14 = uitofp i64 %13 to x86_fp80
  %15 = call noundef i64 @_ZNSt23mersenne_twister_engineImLm32ELm624ELm397ELm31ELm2567483615ELm11ELm4294967295ELm7ELm2636928640ELm15ELm4022730752ELm18ELm1812433253EE3minEv()
  %16 = uitofp i64 %15 to x86_fp80
  %17 = fsub x86_fp80 %14, %16
  %18 = fadd x86_fp80 %17, 0xK3FFF8000000000000000
  store x86_fp80 %18, ptr %4, align 16
  %19 = load x86_fp80, ptr %4, align 16
  %20 = call noundef x86_fp80 @_ZSt3loge(x86_fp80 noundef %19)
  %21 = call noundef x86_fp80 @_ZSt3loge(x86_fp80 noundef 0xK40008000000000000000)
  %22 = fdiv x86_fp80 %20, %21
  %23 = fptoui x86_fp80 %22 to i64
  store i64 %23, ptr %5, align 8
  store i64 1, ptr %7, align 8
  %24 = load i64, ptr %5, align 8
  %25 = add i64 53, %24
  %26 = sub i64 %25, 1
  %27 = load i64, ptr %5, align 8
  %28 = udiv i64 %26, %27
  store i64 %28, ptr %8, align 8
  %29 = call noundef nonnull align 8 dereferenceable(8) ptr @_ZSt3maxImERKT_S2_S2_(ptr noundef nonnull align 8 dereferenceable(8) %7, ptr noundef nonnull align 8 dereferenceable(8) %8)
  %30 = load i64, ptr %29, align 8
  store i64 %30, ptr %6, align 8
  store double 0.000000e+00, ptr %10, align 8
  store double 1.000000e+00, ptr %11, align 8
  %31 = load i64, ptr %6, align 8
  store i64 %31, ptr %12, align 8
  br label %32

32:                                               ; preds = %49, %1
  %33 = load i64, ptr %12, align 8
  %34 = icmp ne i64 %33, 0
  br i1 %34, label %35, label %52

35:                                               ; preds = %32
  %36 = load ptr, ptr %2, align 8
  %37 = call noundef i64 @_ZNSt23mersenne_twister_engineImLm32ELm624ELm397ELm31ELm2567483615ELm11ELm4294967295ELm7ELm2636928640ELm15ELm4022730752ELm18ELm1812433253EEclEv(ptr noundef nonnull align 8 dereferenceable(5000) %36)
  %38 = call noundef i64 @_ZNSt23mersenne_twister_engineImLm32ELm624ELm397ELm31ELm2567483615ELm11ELm4294967295ELm7ELm2636928640ELm15ELm4022730752ELm18ELm1812433253EE3minEv()
  %39 = sub i64 %37, %38
  %40 = uitofp i64 %39 to double
  %41 = load double, ptr %11, align 8
  %42 = load double, ptr %10, align 8
  %43 = call double @llvm.fmuladd.f64(double %40, double %41, double %42)
  store double %43, ptr %10, align 8
  %44 = load x86_fp80, ptr %4, align 16
  %45 = load double, ptr %11, align 8
  %46 = fpext double %45 to x86_fp80
  %47 = fmul x86_fp80 %46, %44
  %48 = fptrunc x86_fp80 %47 to double
  store double %48, ptr %11, align 8
  br label %49

49:                                               ; preds = %35
  %50 = load i64, ptr %12, align 8
  %51 = add i64 %50, -1
  store i64 %51, ptr %12, align 8
  br label %32, !llvm.loop !197

52:                                               ; preds = %32
  %53 = load double, ptr %10, align 8
  %54 = load double, ptr %11, align 8
  %55 = fdiv double %53, %54
  store double %55, ptr %9, align 8
  %56 = load double, ptr %9, align 8
  %57 = fcmp oge double %56, 1.000000e+00
  br i1 %57, label %58, label %60

58:                                               ; preds = %52
  %59 = call double @nextafter(double noundef 1.000000e+00, double noundef 0.000000e+00) #3
  store double %59, ptr %9, align 8
  br label %60

60:                                               ; preds = %58, %52
  %61 = load double, ptr %9, align 8
  ret double %61
}

; Function Attrs: mustprogress nounwind uwtable
define linkonce_odr noundef i64 @_ZNSt8__detail4_ModImLm624ELm1ELm0ELb1ELb1EE6__calcEm(i64 noundef %0) #4 comdat align 2 {
  %2 = alloca i64, align 8
  %3 = alloca i64, align 8
  store i64 %0, ptr %2, align 8
  %4 = load i64, ptr %2, align 8
  %5 = mul i64 1, %4
  %6 = add i64 %5, 0
  store i64 %6, ptr %3, align 8
  %7 = load i64, ptr %3, align 8
  %8 = urem i64 %7, 624
  store i64 %8, ptr %3, align 8
  %9 = load i64, ptr %3, align 8
  ret i64 %9
}

; Function Attrs: mustprogress nounwind uwtable
define linkonce_odr noundef i64 @_ZNSt8__detail4_ModImLm4294967296ELm1ELm0ELb1ELb1EE6__calcEm(i64 noundef %0) #4 comdat align 2 {
  %2 = alloca i64, align 8
  %3 = alloca i64, align 8
  store i64 %0, ptr %2, align 8
  %4 = load i64, ptr %2, align 8
  %5 = mul i64 1, %4
  %6 = add i64 %5, 0
  store i64 %6, ptr %3, align 8
  %7 = load i64, ptr %3, align 8
  %8 = urem i64 %7, 4294967296
  store i64 %8, ptr %3, align 8
  %9 = load i64, ptr %3, align 8
  ret i64 %9
}

; Function Attrs: mustprogress nounwind uwtable
define linkonce_odr noundef double @_ZNKSt25uniform_real_distributionIdE10param_type1aEv(ptr noundef nonnull align 8 dereferenceable(16) %0) #4 comdat align 2 {
  %2 = alloca ptr, align 8
  store ptr %0, ptr %2, align 8
  %3 = load ptr, ptr %2, align 8
  %4 = getelementptr inbounds %"struct.std::uniform_real_distribution<>::param_type", ptr %3, i32 0, i32 0
  %5 = load double, ptr %4, align 8
  ret double %5
}

; Function Attrs: mustprogress nounwind uwtable
define linkonce_odr noundef double @_ZNKSt25uniform_real_distributionIdE10param_type1bEv(ptr noundef nonnull align 8 dereferenceable(16) %0) #4 comdat align 2 {
  %2 = alloca ptr, align 8
  store ptr %0, ptr %2, align 8
  %3 = load ptr, ptr %2, align 8
  %4 = getelementptr inbounds %"struct.std::uniform_real_distribution<>::param_type", ptr %3, i32 0, i32 1
  %5 = load double, ptr %4, align 8
  ret double %5
}

; Function Attrs: mustprogress uwtable
define linkonce_odr noundef double @_ZNSt8__detail8_AdaptorISt23mersenne_twister_engineImLm32ELm624ELm397ELm31ELm2567483615ELm11ELm4294967295ELm7ELm2636928640ELm15ELm4022730752ELm18ELm1812433253EEdEclEv(ptr noundef nonnull align 8 dereferenceable(8) %0) #5 comdat align 2 {
  %2 = alloca ptr, align 8
  store ptr %0, ptr %2, align 8
  %3 = load ptr, ptr %2, align 8
  %4 = getelementptr inbounds %"struct.std::__detail::_Adaptor", ptr %3, i32 0, i32 0
  %5 = load ptr, ptr %4, align 8
  %6 = call noundef double @_ZSt18generate_canonicalIdLm53ESt23mersenne_twister_engineImLm32ELm624ELm397ELm31ELm2567483615ELm11ELm4294967295ELm7ELm2636928640ELm15ELm4022730752ELm18ELm1812433253EEET_RT1_(ptr noundef nonnull align 8 dereferenceable(5000) %5)
  ret double %6
}

; Function Attrs: mustprogress nounwind uwtable
define linkonce_odr void @_ZNSt8__detail8_AdaptorISt23mersenne_twister_engineImLm32ELm624ELm397ELm31ELm2567483615ELm11ELm4294967295ELm7ELm2636928640ELm15ELm4022730752ELm18ELm1812433253EEdEC2ERS2_(ptr noundef nonnull align 8 dereferenceable(8) %0, ptr noundef nonnull align 8 dereferenceable(5000) %1) unnamed_addr #4 comdat align 2 {
  %3 = alloca ptr, align 8
  %4 = alloca ptr, align 8
  store ptr %0, ptr %3, align 8
  store ptr %1, ptr %4, align 8
  %5 = load ptr, ptr %3, align 8
  %6 = getelementptr inbounds %"struct.std::__detail::_Adaptor", ptr %5, i32 0, i32 0
  %7 = load ptr, ptr %4, align 8
  store ptr %7, ptr %6, align 8
  ret void
}

; Function Attrs: mustprogress uwtable
define linkonce_odr noundef i64 @_ZNSt8__detail5__modImTnT_Lm624ETnS1_Lm1ETnS1_Lm0EEES1_S1_(i64 noundef %0) #5 comdat {
  %2 = alloca i64, align 8
  %3 = alloca i64, align 8
  store i64 %0, ptr %2, align 8
  store i64 1, ptr %3, align 8
  %4 = load i64, ptr %2, align 8
  %5 = call noundef i64 @_ZNSt8__detail4_ModImLm624ELm1ELm0ELb1ELb1EE6__calcEm(i64 noundef %4)
  ret i64 %5
}

; Function Attrs: mustprogress uwtable
define linkonce_odr noundef i64 @_ZNSt8__detail5__modImTnT_Lm4294967296ETnS1_Lm1ETnS1_Lm0EEES1_S1_(i64 noundef %0) #5 comdat {
  %2 = alloca i64, align 8
  %3 = alloca i64, align 8
  store i64 %0, ptr %2, align 8
  store i64 1, ptr %3, align 8
  %4 = load i64, ptr %2, align 8
  %5 = call noundef i64 @_ZNSt8__detail4_ModImLm4294967296ELm1ELm0ELb1ELb1EE6__calcEm(i64 noundef %4)
  ret i64 %5
}

; Function Attrs: mustprogress uwtable
define linkonce_odr noundef double @_ZNSt25uniform_real_distributionIdEclISt23mersenne_twister_engineImLm32ELm624ELm397ELm31ELm2567483615ELm11ELm4294967295ELm7ELm2636928640ELm15ELm4022730752ELm18ELm1812433253EEEEdRT_RKNS0_10param_typeE(ptr noundef nonnull align 8 dereferenceable(16) %0, ptr noundef nonnull align 8 dereferenceable(5000) %1, ptr noundef nonnull align 8 dereferenceable(16) %2) #5 comdat align 2 {
  %4 = alloca ptr, align 8
  %5 = alloca ptr, align 8
  %6 = alloca ptr, align 8
  %7 = alloca %"struct.std::__detail::_Adaptor", align 8
  store ptr %0, ptr %4, align 8
  store ptr %1, ptr %5, align 8
  store ptr %2, ptr %6, align 8
  %8 = load ptr, ptr %5, align 8
  call void @_ZNSt8__detail8_AdaptorISt23mersenne_twister_engineImLm32ELm624ELm397ELm31ELm2567483615ELm11ELm4294967295ELm7ELm2636928640ELm15ELm4022730752ELm18ELm1812433253EEdEC2ERS2_(ptr noundef nonnull align 8 dereferenceable(8) %7, ptr noundef nonnull align 8 dereferenceable(5000) %8)
  %9 = call noundef double @_ZNSt8__detail8_AdaptorISt23mersenne_twister_engineImLm32ELm624ELm397ELm31ELm2567483615ELm11ELm4294967295ELm7ELm2636928640ELm15ELm4022730752ELm18ELm1812433253EEdEclEv(ptr noundef nonnull align 8 dereferenceable(8) %7)
  %10 = load ptr, ptr %6, align 8
  %11 = call noundef double @_ZNKSt25uniform_real_distributionIdE10param_type1bEv(ptr noundef nonnull align 8 dereferenceable(16) %10)
  %12 = load ptr, ptr %6, align 8
  %13 = call noundef double @_ZNKSt25uniform_real_distributionIdE10param_type1aEv(ptr noundef nonnull align 8 dereferenceable(16) %12)
  %14 = fsub double %11, %13
  %15 = load ptr, ptr %6, align 8
  %16 = call noundef double @_ZNKSt25uniform_real_distributionIdE10param_type1aEv(ptr noundef nonnull align 8 dereferenceable(16) %15)
  %17 = call double @llvm.fmuladd.f64(double %9, double %14, double %16)
  ret double %17
}

; Function Attrs: mustprogress nounwind uwtable
define linkonce_odr void @_ZNSt25uniform_real_distributionIdE10param_typeC2Edd(ptr noundef nonnull align 8 dereferenceable(16) %0, double noundef %1, double noundef %2) unnamed_addr #4 comdat align 2 {
  %4 = alloca ptr, align 8
  %5 = alloca double, align 8
  %6 = alloca double, align 8
  store ptr %0, ptr %4, align 8
  store double %1, ptr %5, align 8
  store double %2, ptr %6, align 8
  %7 = load ptr, ptr %4, align 8
  %8 = getelementptr inbounds %"struct.std::uniform_real_distribution<>::param_type", ptr %7, i32 0, i32 0
  %9 = load double, ptr %5, align 8
  store double %9, ptr %8, align 8
  %10 = getelementptr inbounds %"struct.std::uniform_real_distribution<>::param_type", ptr %7, i32 0, i32 1
  %11 = load double, ptr %6, align 8
  store double %11, ptr %10, align 8
  br label %12

12:                                               ; preds = %3
  br label %13

13:                                               ; preds = %12
  ret void
}

; Function Attrs: mustprogress uwtable
define linkonce_odr void @_ZNSt23mersenne_twister_engineImLm32ELm624ELm397ELm31ELm2567483615ELm11ELm4294967295ELm7ELm2636928640ELm15ELm4022730752ELm18ELm1812433253EE4seedEm(ptr noundef nonnull align 8 dereferenceable(5000) %0, i64 noundef %1) #5 comdat align 2 {
  %3 = alloca ptr, align 8
  %4 = alloca i64, align 8
  %5 = alloca i64, align 8
  %6 = alloca i64, align 8
  store ptr %0, ptr %3, align 8
  store i64 %1, ptr %4, align 8
  %7 = load ptr, ptr %3, align 8
  %8 = load i64, ptr %4, align 8
  %9 = call noundef i64 @_ZNSt8__detail5__modImTnT_Lm4294967296ETnS1_Lm1ETnS1_Lm0EEES1_S1_(i64 noundef %8)
  %10 = getelementptr inbounds %"class.std::mersenne_twister_engine", ptr %7, i32 0, i32 0
  %11 = getelementptr inbounds [624 x i64], ptr %10, i64 0, i64 0
  store i64 %9, ptr %11, align 8
  store i64 1, ptr %5, align 8
  br label %12

12:                                               ; preds = %36, %2
  %13 = load i64, ptr %5, align 8
  %14 = icmp ult i64 %13, 624
  br i1 %14, label %15, label %39

15:                                               ; preds = %12
  %16 = getelementptr inbounds %"class.std::mersenne_twister_engine", ptr %7, i32 0, i32 0
  %17 = load i64, ptr %5, align 8
  %18 = sub i64 %17, 1
  %19 = getelementptr inbounds [624 x i64], ptr %16, i64 0, i64 %18
  %20 = load i64, ptr %19, align 8
  store i64 %20, ptr %6, align 8
  %21 = load i64, ptr %6, align 8
  %22 = lshr i64 %21, 30
  %23 = load i64, ptr %6, align 8
  %24 = xor i64 %23, %22
  store i64 %24, ptr %6, align 8
  %25 = load i64, ptr %6, align 8
  %26 = mul i64 %25, 1812433253
  store i64 %26, ptr %6, align 8
  %27 = load i64, ptr %5, align 8
  %28 = call noundef i64 @_ZNSt8__detail5__modImTnT_Lm624ETnS1_Lm1ETnS1_Lm0EEES1_S1_(i64 noundef %27)
  %29 = load i64, ptr %6, align 8
  %30 = add i64 %29, %28
  store i64 %30, ptr %6, align 8
  %31 = load i64, ptr %6, align 8
  %32 = call noundef i64 @_ZNSt8__detail5__modImTnT_Lm4294967296ETnS1_Lm1ETnS1_Lm0EEES1_S1_(i64 noundef %31)
  %33 = getelementptr inbounds %"class.std::mersenne_twister_engine", ptr %7, i32 0, i32 0
  %34 = load i64, ptr %5, align 8
  %35 = getelementptr inbounds [624 x i64], ptr %33, i64 0, i64 %34
  store i64 %32, ptr %35, align 8
  br label %36

36:                                               ; preds = %15
  %37 = load i64, ptr %5, align 8
  %38 = add i64 %37, 1
  store i64 %38, ptr %5, align 8
  br label %12, !llvm.loop !196

39:                                               ; preds = %12
  %40 = getelementptr inbounds %"class.std::mersenne_twister_engine", ptr %7, i32 0, i32 1
  store i64 624, ptr %40, align 8
  ret void
}

; Function Attrs: mustprogress nounwind uwtable
define linkonce_odr void @_ZNSt13random_deviceD2Ev(ptr noundef nonnull align 8 dereferenceable(5000) %0) unnamed_addr #4 comdat align 2 personality ptr @__gxx_personality_v0 {
  %2 = alloca ptr, align 8
  store ptr %0, ptr %2, align 8
  %3 = load ptr, ptr %2, align 8
  invoke void @_ZNSt13random_device7_M_finiEv(ptr noundef nonnull align 8 dereferenceable(5000) %3)
          to label %4 unwind label %5

4:                                                ; preds = %1
  ret void

5:                                                ; preds = %1
  %6 = landingpad { ptr, i32 }
          catch ptr null
  %7 = extractvalue { ptr, i32 } %6, 0
  call void @__clang_call_terminate(ptr %7) #21
  unreachable
}

; Function Attrs: mustprogress uwtable
define linkonce_odr noundef double @_ZNSt25uniform_real_distributionIdEclISt23mersenne_twister_engineImLm32ELm624ELm397ELm31ELm2567483615ELm11ELm4294967295ELm7ELm2636928640ELm15ELm4022730752ELm18ELm1812433253EEEEdRT_(ptr noundef nonnull align 8 dereferenceable(16) %0, ptr noundef nonnull align 8 dereferenceable(5000) %1) #5 comdat align 2 {
  %3 = alloca ptr, align 8
  %4 = alloca ptr, align 8
  store ptr %0, ptr %3, align 8
  store ptr %1, ptr %4, align 8
  %5 = load ptr, ptr %3, align 8
  %6 = load ptr, ptr %4, align 8
  %7 = getelementptr inbounds %"class.std::uniform_real_distribution", ptr %5, i32 0, i32 0
  %8 = call noundef double @_ZNSt25uniform_real_distributionIdEclISt23mersenne_twister_engineImLm32ELm624ELm397ELm31ELm2567483615ELm11ELm4294967295ELm7ELm2636928640ELm15ELm4022730752ELm18ELm1812433253EEEEdRT_RKNS0_10param_typeE(ptr noundef nonnull align 8 dereferenceable(16) %5, ptr noundef nonnull align 8 dereferenceable(5000) %6, ptr noundef nonnull align 8 dereferenceable(16) %7)
  ret double %8
}

; Function Attrs: mustprogress uwtable
define linkonce_odr void @_ZNSt25uniform_real_distributionIdEC2Edd(ptr noundef nonnull align 8 dereferenceable(16) %0, double noundef %1, double noundef %2) unnamed_addr #5 comdat align 2 {
  %4 = alloca ptr, align 8
  %5 = alloca double, align 8
  %6 = alloca double, align 8
  store ptr %0, ptr %4, align 8
  store double %1, ptr %5, align 8
  store double %2, ptr %6, align 8
  %7 = load ptr, ptr %4, align 8
  %8 = getelementptr inbounds %"class.std::uniform_real_distribution", ptr %7, i32 0, i32 0
  %9 = load double, ptr %5, align 8
  %10 = load double, ptr %6, align 8
  call void @_ZNSt25uniform_real_distributionIdE10param_typeC2Edd(ptr noundef nonnull align 8 dereferenceable(16) %8, double noundef %9, double noundef %10)
  ret void
}

; Function Attrs: mustprogress uwtable
define linkonce_odr void @_ZNSt23mersenne_twister_engineImLm32ELm624ELm397ELm31ELm2567483615ELm11ELm4294967295ELm7ELm2636928640ELm15ELm4022730752ELm18ELm1812433253EEC2Em(ptr noundef nonnull align 8 dereferenceable(5000) %0, i64 noundef %1) unnamed_addr #5 comdat align 2 {
  %3 = alloca ptr, align 8
  %4 = alloca i64, align 8
  store ptr %0, ptr %3, align 8
  store i64 %1, ptr %4, align 8
  %5 = load ptr, ptr %3, align 8
  %6 = load i64, ptr %4, align 8
  call void @_ZNSt23mersenne_twister_engineImLm32ELm624ELm397ELm31ELm2567483615ELm11ELm4294967295ELm7ELm2636928640ELm15ELm4022730752ELm18ELm1812433253EE4seedEm(ptr noundef nonnull align 8 dereferenceable(5000) %5, i64 noundef %6)
  ret void
}

; Function Attrs: mustprogress uwtable
define linkonce_odr noundef i32 @_ZNSt13random_deviceclEv(ptr noundef nonnull align 8 dereferenceable(5000) %0) #5 comdat align 2 {
  %2 = alloca ptr, align 8
  store ptr %0, ptr %2, align 8
  %3 = load ptr, ptr %2, align 8
  %4 = call noundef i32 @_ZNSt13random_device9_M_getvalEv(ptr noundef nonnull align 8 dereferenceable(5000) %3)
  ret i32 %4
}

; Function Attrs: mustprogress uwtable
define noundef double @_ZN20FilterFunctionPlugin6randomEv() #5 align 2 personality ptr @__gxx_personality_v0 {
  %1 = alloca %"class.std::random_device", align 8
  %2 = alloca %"class.std::mersenne_twister_engine", align 8
  %3 = alloca ptr, align 8
  %4 = alloca i32, align 4
  %5 = alloca %"class.std::uniform_real_distribution", align 8
  call void @_ZNSt13random_deviceC2Ev(ptr noundef nonnull align 8 dereferenceable(5000) %1)
  %6 = invoke noundef i32 @_ZNSt13random_deviceclEv(ptr noundef nonnull align 8 dereferenceable(5000) %1)
          to label %7 unwind label %13

7:                                                ; preds = %0
  %8 = zext i32 %6 to i64
  invoke void @_ZNSt23mersenne_twister_engineImLm32ELm624ELm397ELm31ELm2567483615ELm11ELm4294967295ELm7ELm2636928640ELm15ELm4022730752ELm18ELm1812433253EEC2Em(ptr noundef nonnull align 8 dereferenceable(5000) %2, i64 noundef %8)
          to label %9 unwind label %13

9:                                                ; preds = %7
  invoke void @_ZNSt25uniform_real_distributionIdEC2Edd(ptr noundef nonnull align 8 dereferenceable(16) %5, double noundef 0.000000e+00, double noundef 1.000000e+00)
          to label %10 unwind label %13

10:                                               ; preds = %9
  %11 = invoke noundef double @_ZNSt25uniform_real_distributionIdEclISt23mersenne_twister_engineImLm32ELm624ELm397ELm31ELm2567483615ELm11ELm4294967295ELm7ELm2636928640ELm15ELm4022730752ELm18ELm1812433253EEEEdRT_(ptr noundef nonnull align 8 dereferenceable(16) %5, ptr noundef nonnull align 8 dereferenceable(5000) %2)
          to label %12 unwind label %13

12:                                               ; preds = %10
  call void @_ZNSt13random_deviceD2Ev(ptr noundef nonnull align 8 dereferenceable(5000) %1) #3
  ret double %11

13:                                               ; preds = %10, %9, %7, %0
  %14 = landingpad { ptr, i32 }
          cleanup
  %15 = extractvalue { ptr, i32 } %14, 0
  store ptr %15, ptr %3, align 8
  %16 = extractvalue { ptr, i32 } %14, 1
  store i32 %16, ptr %4, align 4
  call void @_ZNSt13random_deviceD2Ev(ptr noundef nonnull align 8 dereferenceable(5000) %1) #3
  br label %17

17:                                               ; preds = %13
  %18 = load ptr, ptr %3, align 8
  %19 = load i32, ptr %4, align 4
  %20 = insertvalue { ptr, i32 } poison, ptr %18, 0
  %21 = insertvalue { ptr, i32 } %20, i32 %19, 1
  resume { ptr, i32 } %21
}