; Function Attrs: mustprogress uwtable
define noundef double @_ZN20FilterFunctionPlugin6randomEv() #9 align 2 personality ptr @__gxx_personality_v0 {
  %1 = alloca %"class.std::random_device", align 8
  %2 = alloca %"class.std::mersenne_twister_engine", align 8
  call void @_ZNSt13random_deviceC2Ev(ptr noundef nonnull align 8 dereferenceable(5000) %1)
  %3 = invoke noundef i32 @_ZNSt13random_device9_M_getvalEv(ptr noundef nonnull align 8 dereferenceable(5000) %1)
          to label %_ZNSt13random_deviceclEv.exit unwind label %.loopexit.split-lp

_ZNSt13random_deviceclEv.exit:                    ; preds = %0
  %4 = zext i32 %3 to i64
  store i64 %4, ptr %2, align 8
  br label %5

5:                                                ; preds = %5, %_ZNSt13random_deviceclEv.exit
  %6 = phi i64 [ %4, %_ZNSt13random_deviceclEv.exit ], [ %11, %5 ]
  %.011.i.i = phi i64 [ 1, %_ZNSt13random_deviceclEv.exit ], [ %13, %5 ]
  %7 = lshr i64 %6, 30
  %8 = xor i64 %7, %6
  %9 = mul nuw nsw i64 %8, 1812433253
  %10 = add nuw i64 %9, %.011.i.i
  %11 = and i64 %10, 4294967295
  %12 = getelementptr inbounds [624 x i64], ptr %2, i64 0, i64 %.011.i.i
  store i64 %11, ptr %12, align 8
  %13 = add nuw nsw i64 %.011.i.i, 1
  %exitcond.not.i.i = icmp eq i64 %13, 624
  br i1 %exitcond.not.i.i, label %14, label %5, !llvm.loop !318

14:                                               ; preds = %5
  %15 = getelementptr inbounds i8, ptr %2, i64 4992
  store i64 624, ptr %15, align 8
  %16 = call noundef x86_fp80 @logl(x86_fp80 noundef 0xK401F8000000000000000) #27
  %17 = call noundef x86_fp80 @logl(x86_fp80 noundef 0xK40008000000000000000) #27
  %18 = fdiv x86_fp80 %16, %17
  %19 = fptoui x86_fp80 %18 to i64
  %20 = add i64 %19, 52
  %21 = udiv i64 %20, %19
  %spec.select.i.i.i.i = call i64 @llvm.umax.i64(i64 %21, i64 1)
  br label %select.unfold.i.i.i.i

select.unfold.i.i.i.i:                            ; preds = %.noexc, %14
  %.023.i.i.i.i = phi i64 [ %spec.select.i.i.i.i, %14 ], [ %28, %.noexc ]
  %.01422.i.i.i.i = phi double [ 1.000000e+00, %14 ], [ %27, %.noexc ]
  %.01521.i.i.i.i = phi double [ 0.000000e+00, %14 ], [ %24, %.noexc ]
  %22 = invoke noundef i64 @_ZNSt23mersenne_twister_engineImLm32ELm624ELm397ELm31ELm2567483615ELm11ELm4294967295ELm7ELm2636928640ELm15ELm4022730752ELm18ELm1812433253EEclEv(ptr noundef nonnull align 8 dereferenceable(5000) %2)
          to label %.noexc unwind label %.loopexit

.noexc:                                           ; preds = %select.unfold.i.i.i.i
  %23 = uitofp i64 %22 to double
  %24 = call double @llvm.fmuladd.f64(double %23, double %.01422.i.i.i.i, double %.01521.i.i.i.i)
  %25 = fpext double %.01422.i.i.i.i to x86_fp80
  %26 = fmul x86_fp80 %25, 0xK401F8000000000000000
  %27 = fptrunc x86_fp80 %26 to double
  %28 = add i64 %.023.i.i.i.i, -1
  %.not.i.i.i.i = icmp eq i64 %28, 0
  br i1 %.not.i.i.i.i, label %29, label %select.unfold.i.i.i.i, !llvm.loop !319

29:                                               ; preds = %.noexc
  %30 = fdiv double %24, %27
  %31 = fcmp ult double %30, 1.000000e+00
  br i1 %31, label %34, label %32

32:                                               ; preds = %29
  %33 = call double @nextafter(double noundef 1.000000e+00, double noundef 0.000000e+00) #27
  br label %34

34:                                               ; preds = %32, %29
  %.016.i.i.i.i = phi double [ %33, %32 ], [ %30, %29 ]
  invoke void @_ZNSt13random_device7_M_finiEv(ptr noundef nonnull align 8 dereferenceable(5000) %1)
          to label %_ZNSt13random_deviceD2Ev.exit unwind label %35

35:                                               ; preds = %34
  %36 = landingpad { ptr, i32 }
          catch ptr null
  %37 = extractvalue { ptr, i32 } %36, 0
  call void @__clang_call_terminate(ptr %37) #28
  unreachable

_ZNSt13random_deviceD2Ev.exit:                    ; preds = %34
  %38 = fadd double %.016.i.i.i.i, 0.000000e+00
  ret double %38

.loopexit:                                        ; preds = %select.unfold.i.i.i.i
  %lpad.loopexit = landingpad { ptr, i32 }
          cleanup
  br label %39

.loopexit.split-lp:                               ; preds = %0
  %lpad.loopexit.split-lp = landingpad { ptr, i32 }
          cleanup
  br label %39

39:                                               ; preds = %.loopexit.split-lp, %.loopexit
  %lpad.phi = phi { ptr, i32 } [ %lpad.loopexit, %.loopexit ], [ %lpad.loopexit.split-lp, %.loopexit.split-lp ]
  invoke void @_ZNSt13random_device7_M_finiEv(ptr noundef nonnull align 8 dereferenceable(5000) %1)
          to label %_ZNSt13random_deviceD2Ev.exit1 unwind label %40

40:                                               ; preds = %39
  %41 = landingpad { ptr, i32 }
          catch ptr null
  %42 = extractvalue { ptr, i32 } %41, 0
  call void @__clang_call_terminate(ptr %42) #28
  unreachable

_ZNSt13random_deviceD2Ev.exit1:                   ; preds = %39
  resume { ptr, i32 } %lpad.phi
}